; Function Attrs: null_pointer_is_valid sspstrong uwtable
define internal void @dissect_pfcp_dns_query_response_filter(ptr noundef %0, ptr noundef %1, ptr noundef %2, ptr readnone captures(none) %3, i16 noundef zeroext %4, i8 zeroext %5, ptr readnone captures(none) %6) #0 {
  %8 = alloca i32, align 4
  call void @llvm.lifetime.start.p0(i64 4, ptr nonnull %8) #15
  %9 = load i32, ptr @hf_pfcp_dns_query_filter_pattern_len, align 4
  %10 = call ptr @proto_tree_add_item_ret_uint(ptr noundef %2, i32 noundef %9, ptr noundef %0, i32 noundef 0, i32 noundef 2, i32 noundef 0, ptr noundef nonnull %8)
  %11 = load i32, ptr @hf_pfcp_dns_query_filter_pattern, align 4
  %12 = load i32, ptr %8, align 4
  %13 = call ptr @proto_tree_add_item(ptr noundef %2, i32 noundef %11, ptr noundef %0, i32 noundef 2, i32 noundef %12, i32 noundef 0)
  %14 = load i32, ptr %8, align 4
  %15 = add i32 %14, 2
  %16 = zext i16 %4 to i32
  %17 = icmp slt i32 %15, %16
  br i1 %17, label %18, label %20

18:                                               ; preds = %7
  %19 = call ptr @proto_tree_add_expert(ptr noundef %2, ptr noundef %1, ptr noundef nonnull @ei_pfcp_ie_data_not_decoded, ptr noundef %0, i32 noundef %15, i32 noundef -1)
  br label %20

20:                                               ; preds = %18, %7
  call void @llvm.lifetime.end.p0(i64 4, ptr nonnull %8) #15
  ret void
}